target datalayout = "e-m:e-p270:32:32-p271:32:32-p272:64:64-i64:64-i128:128-f80:128-n8:16:32:64-S128"
target triple = "x86_64-pc-linux-gnu"

%class.QString = type { ptr }
%"class.QMetaObject::Connection" = type { ptr }
%class.LayerDialog = type { %class.QDockWidget, ptr, ptr, ptr, ptr, ptr, %class.QMap, i8, [4 x %class.QString], [4 x %class.QMap.16], i32, %"class.std::vector.17", i32, ptr, ptr, i32, ptr, ptr, ptr }
%class.QDockWidget = type { %class.QWidget }
%class.QWidget = type { %class.QObject, %class.QPaintDevice, ptr }
%class.QObject = type { ptr, %class.QScopedPointer }
%class.QScopedPointer = type { ptr }
%class.QPaintDevice = type { ptr, i16, ptr }
%class.QMap = type { ptr }
%class.QMap.16 = type { ptr }
%"class.std::vector.17" = type { %"struct.std::_Vector_base.18" }
%"struct.std::_Vector_base.18" = type { %"struct.std::_Vector_base<int, std::allocator<int>>::_Vector_impl" }
%"struct.std::_Vector_base<int, std::allocator<int>>::_Vector_impl" = type { %"struct.std::_Vector_base<int, std::allocator<int>>::_Vector_impl_data" }
%"struct.std::_Vector_base<int, std::allocator<int>>::_Vector_impl_data" = type { ptr, ptr, ptr }
%class.QSizePolicy = type { %union.anon.28 }
%union.anon.28 = type { %"struct.QSizePolicy::Bits" }
%"struct.QSizePolicy::Bits" = type { i32 }

@.str.109 = private unnamed_addr constant [77 x i8] c"2updateRenderingDataAccordingToActions(int,const QList<MLRenderingAction*>&)\00", align 1
@.str.110 = private unnamed_addr constant [77 x i8] c"1updateRenderingDataAccordingToActions(int,const QList<MLRenderingAction*>&)\00", align 1
@.str.111 = private unnamed_addr constant [62 x i8] c"2updateRenderingDataAccordingToAction(int,MLRenderingAction*)\00", align 1
@.str.112 = private unnamed_addr constant [62 x i8] c"1updateRenderingDataAccordingToAction(int,MLRenderingAction*)\00", align 1
@.str.136 = private unnamed_addr constant [29 x i8] c"2updateLayerTableRequested()\00", align 1
@.str.137 = private unnamed_addr constant [15 x i8] c"1updateTable()\00", align 1

; Function Attrs: mustprogress nounwind uwtable
define linkonce_odr noundef i32 @_Z22qCountTrailingZeroBitsj(i32 noundef %0) #0 comdat {
  %2 = alloca i32, align 4
  %3 = alloca i32, align 4
  store i32 %0, ptr %3, align 4
  %4 = load i32, ptr %3, align 4
  %5 = icmp ne i32 %4, 0
  br i1 %5, label %6, label %10

6:                                                ; preds = %1
  %7 = load i32, ptr %3, align 4
  store i32 %7, ptr %2, align 4
  %8 = load i32, ptr %2, align 4
  %9 = call noundef i32 @llvm.cttz.i32(i32 %8, i1 true)
  br label %11

10:                                               ; preds = %1
  br label %11

11:                                               ; preds = %10, %6
  %12 = phi i32 [ %9, %6 ], [ 32, %10 ]
  ret i32 %12
}

; Function Attrs: mustprogress nounwind uwtable
define linkonce_odr noundef i32 @_ZN11QSizePolicy23toControlTypeFieldValueENS_11ControlTypeE(i32 noundef %0) #0 comdat align 2 {
  %2 = alloca i32, align 4
  store i32 %0, ptr %2, align 4
  %3 = load i32, ptr %2, align 4
  %4 = call noundef i32 @_Z22qCountTrailingZeroBitsj(i32 noundef %3) #4
  ret i32 %4
}

; Function Attrs: mustprogress nounwind uwtable
define linkonce_odr void @_ZN11QSizePolicyC2ENS_6PolicyES0_NS_11ControlTypeE(ptr noundef nonnull align 4 dereferenceable(4) %0, i32 noundef %1, i32 noundef %2, i32 noundef %3) unnamed_addr #0 comdat align 2 {
  %5 = alloca ptr, align 8
  %6 = alloca i32, align 4
  %7 = alloca i32, align 4
  %8 = alloca i32, align 4
  store ptr %0, ptr %5, align 8
  store i32 %1, ptr %6, align 4
  store i32 %2, ptr %7, align 4
  store i32 %3, ptr %8, align 4
  %9 = load ptr, ptr %5, align 8
  %10 = getelementptr inbounds %class.QSizePolicy, ptr %9, i32 0, i32 0
  %11 = load i32, ptr %10, align 4
  %12 = and i32 %11, -256
  %13 = or i32 %12, 0
  store i32 %13, ptr %10, align 4
  %14 = load i32, ptr %10, align 4
  %15 = and i32 %14, -65281
  %16 = or i32 %15, 0
  store i32 %16, ptr %10, align 4
  %17 = load i32, ptr %6, align 4
  %18 = load i32, ptr %10, align 4
  %19 = and i32 %17, 15
  %20 = shl i32 %19, 16
  %21 = and i32 %18, -983041
  %22 = or i32 %21, %20
  store i32 %22, ptr %10, align 4
  %23 = load i32, ptr %7, align 4
  %24 = load i32, ptr %10, align 4
  %25 = and i32 %23, 15
  %26 = shl i32 %25, 20
  %27 = and i32 %24, -15728641
  %28 = or i32 %27, %26
  store i32 %28, ptr %10, align 4
  %29 = load i32, ptr %8, align 4
  %30 = icmp eq i32 %29, 1
  br i1 %30, label %31, label %32

31:                                               ; preds = %4
  br label %35

32:                                               ; preds = %4
  %33 = load i32, ptr %8, align 4
  %34 = call noundef i32 @_ZN11QSizePolicy23toControlTypeFieldValueENS_11ControlTypeE(i32 noundef %33) #4
  br label %35

35:                                               ; preds = %32, %31
  %36 = phi i32 [ 0, %31 ], [ %34, %32 ]
  %37 = load i32, ptr %10, align 4
  %38 = and i32 %36, 31
  %39 = shl i32 %38, 24
  %40 = and i32 %37, -520093697
  %41 = or i32 %40, %39
  store i32 %41, ptr %10, align 4
  %42 = load i32, ptr %10, align 4
  %43 = and i32 %42, -536870913
  %44 = or i32 %43, 0
  store i32 %44, ptr %10, align 4
  %45 = load i32, ptr %10, align 4
  %46 = and i32 %45, -1073741825
  %47 = or i32 %46, 0
  store i32 %47, ptr %10, align 4
  %48 = load i32, ptr %10, align 4
  %49 = and i32 %48, 2147483647
  %50 = or i32 %49, 0
  store i32 %50, ptr %10, align 4
  ret void
}

; Function Attrs: mustprogress uwtable
define linkonce_odr void @_ZN7QWidget13setSizePolicyEN11QSizePolicy6PolicyES1_(ptr noundef nonnull align 8 dereferenceable(48) %0, i32 noundef %1, i32 noundef %2) #5 comdat align 2 {
  %4 = alloca ptr, align 8
  %5 = alloca i32, align 4
  %6 = alloca i32, align 4
  %7 = alloca %class.QSizePolicy, align 4
  store ptr %0, ptr %4, align 8
  store i32 %1, ptr %5, align 4
  store i32 %2, ptr %6, align 4
  %8 = load ptr, ptr %4, align 8
  %9 = load i32, ptr %5, align 4
  %10 = load i32, ptr %6, align 4
  call void @_ZN11QSizePolicyC2ENS_6PolicyES0_NS_11ControlTypeE(ptr noundef nonnull align 4 dereferenceable(4) %7, i32 noundef %9, i32 noundef %10, i32 noundef 1) #4
  %11 = getelementptr inbounds %class.QSizePolicy, ptr %7, i32 0, i32 0
  %12 = getelementptr inbounds %union.anon.28, ptr %11, i32 0, i32 0
  %13 = getelementptr inbounds %"struct.QSizePolicy::Bits", ptr %12, i32 0, i32 0
  %14 = load i32, ptr %13, align 4
  call void @_ZN7QWidget13setSizePolicyE11QSizePolicy(ptr noundef nonnull align 8 dereferenceable(48) %8, i32 %14)
  ret void
}

; Function Attrs: mustprogress uwtable
define noundef ptr @_ZN11LayerDialog28createRenderingParametersTabEv(ptr noundef nonnull align 8 dereferenceable(256) %0) #5 align 2 personality ptr @__gxx_personality_v0 {
  %2 = alloca ptr, align 8
  %3 = alloca ptr, align 8
  %4 = alloca ptr, align 8
  %5 = alloca i32, align 4
  %6 = alloca %"class.QMetaObject::Connection", align 8
  %7 = alloca %"class.QMetaObject::Connection", align 8
  %8 = alloca %"class.QMetaObject::Connection", align 8
  store ptr %0, ptr %2, align 8
  %9 = load ptr, ptr %2, align 8
  %10 = call noalias noundef nonnull ptr @_Znwm(i64 noundef 96) #20
  invoke void @_ZN22MLRenderingSideToolbarC1EP7QWidget(ptr noundef nonnull align 8 dereferenceable(96) %10, ptr noundef null)
          to label %11 unwind label %44

11:                                               ; preds = %1
  store ptr %10, ptr %3, align 8
  %12 = load ptr, ptr %3, align 8
  %13 = load ptr, ptr %12, align 8
  %14 = getelementptr inbounds ptr, ptr %13, i64 13
  %15 = load ptr, ptr %14, align 8
  call void %15(ptr noundef nonnull align 8 dereferenceable(48) %12, i1 noundef zeroext false)
  %16 = call noalias noundef nonnull ptr @_Znwm(i64 noundef 72) #20
  %17 = load ptr, ptr %3, align 8
  %18 = invoke noundef nonnull align 8 dereferenceable(8) ptr @_ZN18MLRenderingToolbar19getRenderingActionsEv(ptr noundef nonnull align 8 dereferenceable(96) %17)
          to label %19 unwind label %48

19:                                               ; preds = %11
  invoke void @_ZN24MLRenderingParametersTabC1EiRK5QListIP17MLRenderingActionEP7QWidget(ptr noundef nonnull align 8 dereferenceable(72) %16, i32 noundef -1, ptr noundef nonnull align 8 dereferenceable(8) %18, ptr noundef null)
          to label %20 unwind label %48

20:                                               ; preds = %19
  %21 = getelementptr inbounds %class.LayerDialog, ptr %9, i32 0, i32 18
  store ptr %16, ptr %21, align 8
  %22 = getelementptr inbounds %class.LayerDialog, ptr %9, i32 0, i32 18
  %23 = load ptr, ptr %22, align 8
  call void @_ZN7QWidget13setSizePolicyEN11QSizePolicy6PolicyES1_(ptr noundef nonnull align 8 dereferenceable(48) %23, i32 noundef 3, i32 noundef 7)
  %24 = getelementptr inbounds %class.LayerDialog, ptr %9, i32 0, i32 18
  %25 = load ptr, ptr %24, align 8
  call void @_ZN7QObject7connectEPKS_PKcS1_S3_N2Qt14ConnectionTypeE(ptr dead_on_unwind writable sret(%"class.QMetaObject::Connection") align 8 %6, ptr noundef %25, ptr noundef @.str.109, ptr noundef %9, ptr noundef @.str.110, i32 noundef 0)
  call void @_ZN11QMetaObject10ConnectionD1Ev(ptr noundef nonnull align 8 dereferenceable(8) %6) #4
  %26 = getelementptr inbounds %class.LayerDialog, ptr %9, i32 0, i32 18
  %27 = load ptr, ptr %26, align 8
  call void @_ZN7QObject7connectEPKS_PKcS1_S3_N2Qt14ConnectionTypeE(ptr dead_on_unwind writable sret(%"class.QMetaObject::Connection") align 8 %7, ptr noundef %27, ptr noundef @.str.111, ptr noundef %9, ptr noundef @.str.112, i32 noundef 0)
  call void @_ZN11QMetaObject10ConnectionD1Ev(ptr noundef nonnull align 8 dereferenceable(8) %7) #4
  %28 = getelementptr inbounds %class.LayerDialog, ptr %9, i32 0, i32 18
  %29 = load ptr, ptr %28, align 8
  call void @_ZN7QObject7connectEPKS_PKcS1_S3_N2Qt14ConnectionTypeE(ptr dead_on_unwind writable sret(%"class.QMetaObject::Connection") align 8 %8, ptr noundef %29, ptr noundef @.str.136, ptr noundef %9, ptr noundef @.str.137, i32 noundef 0)
  call void @_ZN11QMetaObject10ConnectionD1Ev(ptr noundef nonnull align 8 dereferenceable(8) %8) #4
  %30 = getelementptr inbounds %class.LayerDialog, ptr %9, i32 0, i32 18
  %31 = load ptr, ptr %30, align 8
  %32 = load ptr, ptr %31, align 8
  %33 = getelementptr inbounds ptr, ptr %32, i64 13
  %34 = load ptr, ptr %33, align 8
  call void %34(ptr noundef nonnull align 8 dereferenceable(48) %31, i1 noundef zeroext false)
  %35 = load ptr, ptr %3, align 8
  %36 = icmp eq ptr %35, null
  br i1 %36, label %41, label %37

37:                                               ; preds = %20
  %38 = load ptr, ptr %35, align 8
  %39 = getelementptr inbounds ptr, ptr %38, i64 4
  %40 = load ptr, ptr %39, align 8
  call void %40(ptr noundef nonnull align 8 dereferenceable(96) %35) #4
  br label %41

41:                                               ; preds = %37, %20
  %42 = getelementptr inbounds %class.LayerDialog, ptr %9, i32 0, i32 18
  %43 = load ptr, ptr %42, align 8
  ret ptr %43

44:                                               ; preds = %1
  %45 = landingpad { ptr, i32 }
          cleanup
  %46 = extractvalue { ptr, i32 } %45, 0
  store ptr %46, ptr %4, align 8
  %47 = extractvalue { ptr, i32 } %45, 1
  store i32 %47, ptr %5, align 4
  call void @_ZdlPv(ptr noundef %10) #17
  br label %52

48:                                               ; preds = %19, %11
  %49 = landingpad { ptr, i32 }
          cleanup
  %50 = extractvalue { ptr, i32 } %49, 0
  store ptr %50, ptr %4, align 8
  %51 = extractvalue { ptr, i32 } %49, 1
  store i32 %51, ptr %5, align 4
  call void @_ZdlPv(ptr noundef %16) #17
  br label %52

52:                                               ; preds = %48, %44
  %53 = load ptr, ptr %4, align 8
  %54 = load i32, ptr %5, align 4
  %55 = insertvalue { ptr, i32 } poison, ptr %53, 0
  %56 = insertvalue { ptr, i32 } %55, i32 %54, 1
  resume { ptr, i32 } %56
}