; Function Attrs: mustprogress uwtable
define noundef ptr @_ZN11LayerDialog28createRenderingParametersTabEv(ptr noundef nonnull align 8 dereferenceable(256) %0) local_unnamed_addr #9 align 2 personality ptr @__gxx_personality_v0 {
  %2 = alloca %"class.QMetaObject::Connection", align 8
  %3 = alloca %"class.QMetaObject::Connection", align 8
  %4 = alloca %"class.QMetaObject::Connection", align 8
  %5 = tail call noalias noundef nonnull dereferenceable(96) ptr @_Znwm(i64 noundef 96) #26
  invoke void @_ZN22MLRenderingSideToolbarC1EP7QWidget(ptr noundef nonnull align 8 dereferenceable(96) %5, ptr noundef null)
          to label %6 unwind label %26

6:                                                ; preds = %1
  %7 = load ptr, ptr %5, align 8
  %8 = getelementptr inbounds i8, ptr %7, i64 104
  %9 = load ptr, ptr %8, align 8
  tail call void %9(ptr noundef nonnull align 8 dereferenceable(48) %5, i1 noundef zeroext false)
  %10 = tail call noalias noundef nonnull dereferenceable(72) ptr @_Znwm(i64 noundef 72) #26
  %11 = invoke noundef nonnull align 8 dereferenceable(8) ptr @_ZN18MLRenderingToolbar19getRenderingActionsEv(ptr noundef nonnull align 8 dereferenceable(96) %5)
          to label %12 unwind label %28

12:                                               ; preds = %6
  invoke void @_ZN24MLRenderingParametersTabC1EiRK5QListIP17MLRenderingActionEP7QWidget(ptr noundef nonnull align 8 dereferenceable(72) %10, i32 noundef -1, ptr noundef nonnull align 8 dereferenceable(8) %11, ptr noundef null)
          to label %13 unwind label %28

13:                                               ; preds = %12
  %14 = getelementptr inbounds i8, ptr %0, i64 248
  store ptr %10, ptr %14, align 8
  tail call void @_ZN7QWidget13setSizePolicyE11QSizePolicy(ptr noundef nonnull align 8 dereferenceable(48) %10, i32 7536640)
  %15 = load ptr, ptr %14, align 8
  call void @_ZN7QObject7connectEPKS_PKcS1_S3_N2Qt14ConnectionTypeE(ptr dead_on_unwind nonnull writable sret(%"class.QMetaObject::Connection") align 8 %2, ptr noundef %15, ptr noundef nonnull @.str.109, ptr noundef nonnull %0, ptr noundef nonnull @.str.110, i32 noundef 0)
  call void @_ZN11QMetaObject10ConnectionD1Ev(ptr noundef nonnull align 8 dereferenceable(8) %2) #22
  %16 = load ptr, ptr %14, align 8
  call void @_ZN7QObject7connectEPKS_PKcS1_S3_N2Qt14ConnectionTypeE(ptr dead_on_unwind nonnull writable sret(%"class.QMetaObject::Connection") align 8 %3, ptr noundef %16, ptr noundef nonnull @.str.111, ptr noundef nonnull %0, ptr noundef nonnull @.str.112, i32 noundef 0)
  call void @_ZN11QMetaObject10ConnectionD1Ev(ptr noundef nonnull align 8 dereferenceable(8) %3) #22
  %17 = load ptr, ptr %14, align 8
  call void @_ZN7QObject7connectEPKS_PKcS1_S3_N2Qt14ConnectionTypeE(ptr dead_on_unwind nonnull writable sret(%"class.QMetaObject::Connection") align 8 %4, ptr noundef %17, ptr noundef nonnull @.str.136, ptr noundef nonnull %0, ptr noundef nonnull @.str.137, i32 noundef 0)
  call void @_ZN11QMetaObject10ConnectionD1Ev(ptr noundef nonnull align 8 dereferenceable(8) %4) #22
  %18 = load ptr, ptr %14, align 8
  %19 = load ptr, ptr %18, align 8
  %20 = getelementptr inbounds i8, ptr %19, i64 104
  %21 = load ptr, ptr %20, align 8
  call void %21(ptr noundef nonnull align 8 dereferenceable(48) %18, i1 noundef zeroext false)
  %22 = load ptr, ptr %5, align 8
  %23 = getelementptr inbounds i8, ptr %22, i64 32
  %24 = load ptr, ptr %23, align 8
  call void %24(ptr noundef nonnull align 8 dereferenceable(96) %5) #22
  %25 = load ptr, ptr %14, align 8
  ret ptr %25

26:                                               ; preds = %1
  %27 = landingpad { ptr, i32 }
          cleanup
  br label %30

28:                                               ; preds = %12, %6
  %29 = landingpad { ptr, i32 }
          cleanup
  br label %30

30:                                               ; preds = %28, %26
  %.sink = phi ptr [ %10, %28 ], [ %5, %26 ]
  %.pn = phi { ptr, i32 } [ %29, %28 ], [ %27, %26 ]
  tail call void @_ZdlPv(ptr noundef nonnull %.sink) #23
  resume { ptr, i32 } %.pn
}